target datalayout = "e-m:e-p270:32:32-p271:32:32-p272:64:64-i64:64-i128:128-f80:128-n8:16:32:64-S128"
target triple = "x86_64-pc-linux-gnu"

%struct.SDL_Renderer = type { ptr, ptr, ptr, ptr, ptr, ptr, ptr, ptr, ptr, ptr, ptr, ptr, ptr, ptr, ptr, ptr, ptr, ptr, ptr, ptr, ptr, ptr, ptr, ptr, ptr, ptr, ptr, ptr, ptr, ptr, i32, i8, ptr, i8, i8, i8, i64, i64, ptr, %struct.SDL_RenderViewState, %struct.SDL_FPoint, i32, i32, ptr, ptr, ptr, i32, float, float, float, float, %struct.SDL_FColor, i32, i32, i32, ptr, ptr, ptr, ptr, i32, %struct.SDL_FColor, float, %struct.SDL_Rect, %struct.SDL_Rect, i8, i8, i8, i8, ptr, i64, i64, i8, ptr, ptr, i32, ptr, i8, ptr, ptr }
%struct.SDL_RenderViewState = type { i32, i32, %struct.SDL_Rect, %struct.SDL_Rect, %struct.SDL_Rect, %struct.SDL_Rect, i8, %struct.SDL_FPoint, i32, i32, i32, %struct.SDL_FRect, %struct.SDL_FRect, %struct.SDL_FPoint, %struct.SDL_FPoint, %struct.SDL_FPoint }
%struct.SDL_FRect = type { float, float, float, float }
%struct.SDL_FPoint = type { float, float }
%struct.SDL_FColor = type { float, float, float, float }
%struct.SDL_Rect = type { i32, i32, i32, i32 }
%struct.GPU_RenderData = type { ptr, %struct.GPU_Shaders, %struct.GPU_PipelineCache, %struct.anon, %struct.anon.0, %struct.anon.1, %struct.anon.2, [8 x ptr] }
%struct.GPU_Shaders = type { [3 x ptr], [6 x ptr] }
%struct.GPU_PipelineCache = type { ptr }
%struct.anon = type { ptr, i32, i32, i32 }
%struct.anon.0 = type { i32, i32 }
%struct.anon.1 = type { ptr, ptr, i32 }
%struct.anon.2 = type { ptr, ptr, ptr, %struct.SDL_GPUColorTargetInfo, %struct.SDL_GPUViewport, %struct.SDL_Rect, %struct.SDL_FColor, i8, i8 }
%struct.SDL_GPUColorTargetInfo = type { ptr, i32, i32, %struct.SDL_FColor, i32, i32, ptr, i32, i32, i8, i8, i8, i8 }
%struct.SDL_GPUViewport = type { float, float, float, float, float, float }

@.str.17 = private unnamed_addr constant [32 x i8] c"That operation is not supported\00", align 1

; Function Attrs: nounwind uwtable
define internal zeroext i1 @ChoosePresentMode(ptr noundef %0, ptr noundef %1, i32 noundef %2, ptr noundef %3) #0 {
  %5 = alloca i1, align 1
  %6 = alloca ptr, align 8
  %7 = alloca ptr, align 8
  %8 = alloca i32, align 4
  %9 = alloca ptr, align 8
  %10 = alloca i32, align 4
  %11 = alloca i32, align 4
  store ptr %0, ptr %6, align 8
  store ptr %1, ptr %7, align 8
  store i32 %2, ptr %8, align 4
  store ptr %3, ptr %9, align 8
  call void @llvm.lifetime.start.p0(i64 4, ptr %10) #10
  %12 = load i32, ptr %8, align 4
  switch i32 %12, label %27 [
    i32 0, label %13
    i32 1, label %26
  ]

13:                                               ; preds = %4
  store i32 2, ptr %10, align 4
  %14 = load ptr, ptr %6, align 8
  %15 = load ptr, ptr %7, align 8
  %16 = load i32, ptr %10, align 4
  %17 = call zeroext i1 @SDL_WindowSupportsGPUPresentMode_REAL(ptr noundef %14, ptr noundef %15, i32 noundef %16)
  br i1 %17, label %25, label %18

18:                                               ; preds = %13
  store i32 1, ptr %10, align 4
  %19 = load ptr, ptr %6, align 8
  %20 = load ptr, ptr %7, align 8
  %21 = load i32, ptr %10, align 4
  %22 = call zeroext i1 @SDL_WindowSupportsGPUPresentMode_REAL(ptr noundef %19, ptr noundef %20, i32 noundef %21)
  br i1 %22, label %24, label %23

23:                                               ; preds = %18
  store i32 0, ptr %10, align 4
  br label %24

24:                                               ; preds = %23, %18
  br label %25

25:                                               ; preds = %24, %13
  br label %29

26:                                               ; preds = %4
  store i32 0, ptr %10, align 4
  br label %29

27:                                               ; preds = %4
  %28 = call zeroext i1 (ptr, ...) @SDL_SetError_REAL(ptr noundef @.str.17)
  store i1 %28, ptr %5, align 1
  store i32 1, ptr %11, align 4
  br label %32

29:                                               ; preds = %26, %25
  %30 = load i32, ptr %10, align 4
  %31 = load ptr, ptr %9, align 8
  store i32 %30, ptr %31, align 4
  store i1 true, ptr %5, align 1
  store i32 1, ptr %11, align 4
  br label %32

32:                                               ; preds = %29, %27
  call void @llvm.lifetime.end.p0(i64 4, ptr %10) #10
  %33 = load i1, ptr %5, align 1
  ret i1 %33
}

; Function Attrs: nounwind uwtable
define internal zeroext i1 @GPU_SetVSync(ptr noundef %0, i32 noundef %1) #0 {
  %3 = alloca i1, align 1
  %4 = alloca ptr, align 8
  %5 = alloca i32, align 4
  %6 = alloca ptr, align 8
  %7 = alloca i32, align 4
  %8 = alloca i32, align 4
  store ptr %0, ptr %4, align 8
  store i32 %1, ptr %5, align 4
  call void @llvm.lifetime.start.p0(i64 8, ptr %6) #10
  %9 = load ptr, ptr %4, align 8
  %10 = getelementptr inbounds nuw %struct.SDL_Renderer, ptr %9, i32 0, i32 77
  %11 = load ptr, ptr %10, align 8
  store ptr %11, ptr %6, align 8
  call void @llvm.lifetime.start.p0(i64 4, ptr %7) #10
  store i32 0, ptr %7, align 4
  %12 = load ptr, ptr %6, align 8
  %13 = getelementptr inbounds nuw %struct.GPU_RenderData, ptr %12, i32 0, i32 0
  %14 = load ptr, ptr %13, align 8
  %15 = load ptr, ptr %4, align 8
  %16 = getelementptr inbounds nuw %struct.SDL_Renderer, ptr %15, i32 0, i32 32
  %17 = load ptr, ptr %16, align 8
  %18 = load i32, ptr %5, align 4
  %19 = call zeroext i1 @ChoosePresentMode(ptr noundef %14, ptr noundef %17, i32 noundef %18, ptr noundef %7)
  br i1 %19, label %21, label %20

20:                                               ; preds = %2
  store i1 false, ptr %3, align 1
  store i32 1, ptr %8, align 4
  br label %48

21:                                               ; preds = %2
  %22 = load i32, ptr %7, align 4
  %23 = load ptr, ptr %6, align 8
  %24 = getelementptr inbounds nuw %struct.GPU_RenderData, ptr %23, i32 0, i32 4
  %25 = getelementptr inbounds nuw %struct.anon.0, ptr %24, i32 0, i32 1
  %26 = load i32, ptr %25, align 4
  %27 = icmp ne i32 %22, %26
  br i1 %27, label %28, label %47

28:                                               ; preds = %21
  %29 = load ptr, ptr %6, align 8
  %30 = getelementptr inbounds nuw %struct.GPU_RenderData, ptr %29, i32 0, i32 0
  %31 = load ptr, ptr %30, align 8
  %32 = load ptr, ptr %4, align 8
  %33 = getelementptr inbounds nuw %struct.SDL_Renderer, ptr %32, i32 0, i32 32
  %34 = load ptr, ptr %33, align 8
  %35 = load ptr, ptr %6, align 8
  %36 = getelementptr inbounds nuw %struct.GPU_RenderData, ptr %35, i32 0, i32 4
  %37 = getelementptr inbounds nuw %struct.anon.0, ptr %36, i32 0, i32 0
  %38 = load i32, ptr %37, align 8
  %39 = load i32, ptr %7, align 4
  %40 = call zeroext i1 @SDL_SetGPUSwapchainParameters_REAL(ptr noundef %31, ptr noundef %34, i32 noundef %38, i32 noundef %39)
  br i1 %40, label %41, label %46

41:                                               ; preds = %28
  %42 = load i32, ptr %7, align 4
  %43 = load ptr, ptr %6, align 8
  %44 = getelementptr inbounds nuw %struct.GPU_RenderData, ptr %43, i32 0, i32 4
  %45 = getelementptr inbounds nuw %struct.anon.0, ptr %44, i32 0, i32 1
  store i32 %42, ptr %45, align 4
  store i1 true, ptr %3, align 1
  store i32 1, ptr %8, align 4
  br label %48

46:                                               ; preds = %28
  store i1 false, ptr %3, align 1
  store i32 1, ptr %8, align 4
  br label %48

47:                                               ; preds = %21
  store i1 true, ptr %3, align 1
  store i32 1, ptr %8, align 4
  br label %48

48:                                               ; preds = %47, %46, %41, %20
  call void @llvm.lifetime.end.p0(i64 4, ptr %7) #10
  call void @llvm.lifetime.end.p0(i64 8, ptr %6) #10
  %49 = load i1, ptr %3, align 1
  ret i1 %49
}