; Function Attrs: nounwind uwtable
define internal noundef zeroext i1 @GPU_SetVSync(ptr noundef readonly captures(none) %0, i32 noundef %1) #0 {
  %3 = getelementptr inbounds nuw i8, ptr %0, i64 696
  %4 = load ptr, ptr %3, align 8
  %5 = load ptr, ptr %4, align 8
  %6 = getelementptr inbounds nuw i8, ptr %0, i64 248
  %7 = load ptr, ptr %6, align 8
  switch i32 %1, label %ChoosePresentMode.exit [
    i32 0, label %8
    i32 1, label %ChoosePresentMode.exit.thread
  ]

8:                                                ; preds = %2
  %9 = tail call zeroext i1 @SDL_WindowSupportsGPUPresentMode_REAL(ptr noundef %5, ptr noundef %7, i32 noundef 2) #11
  br i1 %9, label %ChoosePresentMode.exit.thread, label %10

10:                                               ; preds = %8
  %11 = tail call zeroext i1 @SDL_WindowSupportsGPUPresentMode_REAL(ptr noundef %5, ptr noundef %7, i32 noundef 1) #11
  %spec.select.i = zext i1 %11 to i32
  br label %ChoosePresentMode.exit.thread

ChoosePresentMode.exit:                           ; preds = %2
  %12 = tail call zeroext i1 (ptr, ...) @SDL_SetError_REAL(ptr noundef nonnull @.str.17) #11
  br i1 %12, label %ChoosePresentMode.exit.thread, label %22

ChoosePresentMode.exit.thread:                    ; preds = %2, %8, %10, %ChoosePresentMode.exit
  %.01114 = phi i32 [ 0, %ChoosePresentMode.exit ], [ 0, %2 ], [ %spec.select.i, %10 ], [ 2, %8 ]
  %13 = getelementptr inbounds nuw i8, ptr %4, i64 116
  %14 = load i32, ptr %13, align 4
  %.not = icmp eq i32 %.01114, %14
  br i1 %.not, label %22, label %15

15:                                               ; preds = %ChoosePresentMode.exit.thread
  %16 = getelementptr inbounds nuw i8, ptr %4, i64 112
  %17 = load ptr, ptr %4, align 8
  %18 = load ptr, ptr %6, align 8
  %19 = load i32, ptr %16, align 8
  %20 = tail call zeroext i1 @SDL_SetGPUSwapchainParameters_REAL(ptr noundef %17, ptr noundef %18, i32 noundef %19, i32 noundef %.01114) #11
  br i1 %20, label %21, label %22

21:                                               ; preds = %15
  store i32 %.01114, ptr %13, align 4
  br label %22

22:                                               ; preds = %ChoosePresentMode.exit.thread, %15, %ChoosePresentMode.exit, %21
  %.0 = phi i1 [ true, %21 ], [ false, %ChoosePresentMode.exit ], [ false, %15 ], [ true, %ChoosePresentMode.exit.thread ]
  ret i1 %.0
}